target datalayout = "e-m:e-p270:32:32-p271:32:32-p272:64:64-i64:64-i128:128-f80:128-n8:16:32:64-S128"
target triple = "x86_64-pc-linux-gnu"

%struct.jit_State = type { %struct.GCtrace, ptr, ptr, ptr, ptr, ptr, ptr, i32, i32, i32, i8, i8, %struct.IRType1, i8, %struct.FoldState, ptr, i32, i32, i32, i32, i32, i32, i32, [1 x i32], [5 x %union.TValue], [3 x %union.TValue], ptr, i32, i32, i32, i32, ptr, ptr, i32, i32, i8, ptr, i32, i32, i16, [101 x i16], [258 x i32], [15 x i32], [16 x ptr], [64 x %struct.HotPenalty], i32, [16 x %struct.BPropEntry], i32, %struct.ScEvEntry, ptr, i32, i32, i32, ptr, i32, i32, ptr, ptr, ptr, i64, i64, %union.TValue, ptr, i32, i32 }
%struct.GCtrace = type { %struct.GCRef, i8, i8, i16, i32, i32, %struct.GCRef, ptr, i32, i32, ptr, ptr, %struct.GCRef, %struct.MRef, i32, i32, ptr, i32, i16, i16, i16, i16, i16, i16, i16, i8, i8, i8, i8 }
%struct.GCRef = type { i64 }
%struct.MRef = type { i64 }
%struct.IRType1 = type { i8 }
%struct.FoldState = type { %union.IRIns, [2 x %union.IRIns], [2 x %union.IRIns] }
%union.IRIns = type { %struct.GCRef }
%struct.HotPenalty = type { %struct.MRef, i16, i16 }
%struct.BPropEntry = type { i16, i16, i32 }
%struct.ScEvEntry = type { %struct.MRef, i16, i16, i16, i16, %struct.IRType1, i8 }
%union.TValue = type { i64 }
%struct.anon = type { i16, i16, i16, i16 }
%struct.anon.0 = type { i32, %struct.IRType1, i8, i8, i8 }

; Function Attrs: nounwind uwtable
define internal i32 @aa_uref(ptr noundef %0, ptr noundef %1) #0 {
  %3 = alloca i32, align 4
  %4 = alloca ptr, align 8
  %5 = alloca ptr, align 8
  store ptr %0, ptr %4, align 8, !tbaa !32
  store ptr %1, ptr %5, align 8, !tbaa !32
  %6 = load ptr, ptr %4, align 8, !tbaa !32
  %7 = getelementptr inbounds nuw %struct.anon, ptr %6, i32 0, i32 0
  %8 = load i16, ptr %7, align 8, !tbaa !11
  %9 = zext i16 %8 to i32
  %10 = load ptr, ptr %5, align 8, !tbaa !32
  %11 = getelementptr inbounds nuw %struct.anon, ptr %10, i32 0, i32 0
  %12 = load i16, ptr %11, align 8, !tbaa !11
  %13 = zext i16 %12 to i32
  %14 = icmp eq i32 %9, %13
  br i1 %14, label %15, label %27

15:                                               ; preds = %2
  %16 = load ptr, ptr %4, align 8, !tbaa !32
  %17 = getelementptr inbounds nuw %struct.anon, ptr %16, i32 0, i32 1
  %18 = load i16, ptr %17, align 2, !tbaa !11
  %19 = zext i16 %18 to i32
  %20 = load ptr, ptr %5, align 8, !tbaa !32
  %21 = getelementptr inbounds nuw %struct.anon, ptr %20, i32 0, i32 1
  %22 = load i16, ptr %21, align 2, !tbaa !11
  %23 = zext i16 %22 to i32
  %24 = icmp eq i32 %19, %23
  br i1 %24, label %25, label %26

25:                                               ; preds = %15
  store i32 2, ptr %3, align 4
  br label %85

26:                                               ; preds = %15
  store i32 0, ptr %3, align 4
  br label %85

27:                                               ; preds = %2
  %28 = load ptr, ptr %4, align 8, !tbaa !32
  %29 = getelementptr inbounds nuw %struct.anon, ptr %28, i32 0, i32 1
  %30 = load i16, ptr %29, align 2, !tbaa !11
  %31 = zext i16 %30 to i32
  %32 = load ptr, ptr %5, align 8, !tbaa !32
  %33 = getelementptr inbounds nuw %struct.anon, ptr %32, i32 0, i32 1
  %34 = load i16, ptr %33, align 2, !tbaa !11
  %35 = zext i16 %34 to i32
  %36 = xor i32 %31, %35
  %37 = and i32 %36, 255
  %38 = icmp ne i32 %37, 0
  br i1 %38, label %39, label %40

39:                                               ; preds = %27
  store i32 0, ptr %3, align 4
  br label %85

40:                                               ; preds = %27
  %41 = load ptr, ptr %4, align 8, !tbaa !32
  %42 = getelementptr inbounds nuw %struct.anon.0, ptr %41, i32 0, i32 2
  %43 = load i8, ptr %42, align 1, !tbaa !11
  %44 = zext i8 %43 to i32
  %45 = load ptr, ptr %5, align 8, !tbaa !32
  %46 = getelementptr inbounds nuw %struct.anon.0, ptr %45, i32 0, i32 2
  %47 = load i8, ptr %46, align 1, !tbaa !11
  %48 = zext i8 %47 to i32
  %49 = icmp ne i32 %44, %48
  br i1 %49, label %50, label %84

50:                                               ; preds = %40
  %51 = load ptr, ptr %4, align 8, !tbaa !32
  %52 = getelementptr inbounds nuw %struct.anon.0, ptr %51, i32 0, i32 1
  %53 = getelementptr inbounds nuw %struct.IRType1, ptr %52, i32 0, i32 0
  %54 = load i8, ptr %53, align 4, !tbaa !11
  %55 = zext i8 %54 to i32
  %56 = and i32 %55, 31
  %57 = icmp eq i32 %56, 21
  br i1 %57, label %58, label %66

58:                                               ; preds = %50
  %59 = load ptr, ptr %4, align 8, !tbaa !32
  %60 = getelementptr inbounds nuw %struct.anon.0, ptr %59, i32 0, i32 1
  %61 = getelementptr inbounds nuw %struct.IRType1, ptr %60, i32 0, i32 0
  %62 = load i8, ptr %61, align 4, !tbaa !11
  %63 = zext i8 %62 to i32
  %64 = add nsw i32 %63, -12
  %65 = trunc i32 %64 to i8
  store i8 %65, ptr %61, align 4, !tbaa !11
  br label %83

66:                                               ; preds = %50
  %67 = load ptr, ptr %5, align 8, !tbaa !32
  %68 = getelementptr inbounds nuw %struct.anon.0, ptr %67, i32 0, i32 1
  %69 = getelementptr inbounds nuw %struct.IRType1, ptr %68, i32 0, i32 0
  %70 = load i8, ptr %69, align 4, !tbaa !11
  %71 = zext i8 %70 to i32
  %72 = and i32 %71, 31
  %73 = icmp eq i32 %72, 21
  br i1 %73, label %74, label %82

74:                                               ; preds = %66
  %75 = load ptr, ptr %5, align 8, !tbaa !32
  %76 = getelementptr inbounds nuw %struct.anon.0, ptr %75, i32 0, i32 1
  %77 = getelementptr inbounds nuw %struct.IRType1, ptr %76, i32 0, i32 0
  %78 = load i8, ptr %77, align 4, !tbaa !11
  %79 = zext i8 %78 to i32
  %80 = add nsw i32 %79, -12
  %81 = trunc i32 %80 to i8
  store i8 %81, ptr %77, align 4, !tbaa !11
  br label %82

82:                                               ; preds = %74, %66
  br label %83

83:                                               ; preds = %82, %58
  store i32 0, ptr %3, align 4
  br label %85

84:                                               ; preds = %40
  store i32 1, ptr %3, align 4
  br label %85

85:                                               ; preds = %84, %83, %39, %26, %25
  %86 = load i32, ptr %3, align 4
  ret i32 %86
}

; Function Attrs: nounwind uwtable
define hidden i32 @lj_opt_fwd_uload(ptr noundef %0) #0 {
  %2 = alloca i32, align 4
  %3 = alloca ptr, align 8
  %4 = alloca i32, align 4
  %5 = alloca i32, align 4
  %6 = alloca ptr, align 8
  %7 = alloca i32, align 4
  %8 = alloca ptr, align 8
  %9 = alloca i32, align 4
  %10 = alloca ptr, align 8
  store ptr %0, ptr %3, align 8, !tbaa !4
  call void @llvm.lifetime.start.p0(i64 4, ptr %4) #5
  %11 = load ptr, ptr %3, align 8, !tbaa !4
  %12 = getelementptr inbounds nuw %struct.jit_State, ptr %11, i32 0, i32 14
  %13 = getelementptr inbounds nuw %struct.FoldState, ptr %12, i32 0, i32 0
  %14 = getelementptr inbounds nuw %struct.anon, ptr %13, i32 0, i32 0
  %15 = load i16, ptr %14, align 8, !tbaa !11
  %16 = zext i16 %15 to i32
  store i32 %16, ptr %4, align 4, !tbaa !9
  call void @llvm.lifetime.start.p0(i64 4, ptr %5) #5
  store i32 32768, ptr %5, align 4, !tbaa !9
  call void @llvm.lifetime.start.p0(i64 8, ptr %6) #5
  %17 = load ptr, ptr %3, align 8, !tbaa !4
  %18 = getelementptr inbounds nuw %struct.jit_State, ptr %17, i32 0, i32 0
  %19 = getelementptr inbounds nuw %struct.GCtrace, ptr %18, i32 0, i32 7
  %20 = load ptr, ptr %19, align 8, !tbaa !14
  %21 = load i32, ptr %4, align 4, !tbaa !9
  %22 = zext i32 %21 to i64
  %23 = getelementptr inbounds nuw %union.IRIns, ptr %20, i64 %22
  store ptr %23, ptr %6, align 8, !tbaa !32
  call void @llvm.lifetime.start.p0(i64 4, ptr %7) #5
  %24 = load ptr, ptr %3, align 8, !tbaa !4
  %25 = getelementptr inbounds nuw %struct.jit_State, ptr %24, i32 0, i32 40
  %26 = getelementptr inbounds [101 x i16], ptr %25, i64 0, i64 76
  %27 = load i16, ptr %26, align 2, !tbaa !12
  %28 = zext i16 %27 to i32
  store i32 %28, ptr %7, align 4, !tbaa !9
  br label %29

29:                                               ; preds = %66, %1
  %30 = load i32, ptr %7, align 4, !tbaa !9
  %31 = load i32, ptr %5, align 4, !tbaa !9
  %32 = icmp ugt i32 %30, %31
  br i1 %32, label %33, label %67

33:                                               ; preds = %29
  call void @llvm.lifetime.start.p0(i64 8, ptr %8) #5
  %34 = load ptr, ptr %3, align 8, !tbaa !4
  %35 = getelementptr inbounds nuw %struct.jit_State, ptr %34, i32 0, i32 0
  %36 = getelementptr inbounds nuw %struct.GCtrace, ptr %35, i32 0, i32 7
  %37 = load ptr, ptr %36, align 8, !tbaa !14
  %38 = load i32, ptr %7, align 4, !tbaa !9
  %39 = zext i32 %38 to i64
  %40 = getelementptr inbounds nuw %union.IRIns, ptr %37, i64 %39
  store ptr %40, ptr %8, align 8, !tbaa !32
  %41 = load ptr, ptr %6, align 8, !tbaa !32
  %42 = load ptr, ptr %3, align 8, !tbaa !4
  %43 = getelementptr inbounds nuw %struct.jit_State, ptr %42, i32 0, i32 0
  %44 = getelementptr inbounds nuw %struct.GCtrace, ptr %43, i32 0, i32 7
  %45 = load ptr, ptr %44, align 8, !tbaa !14
  %46 = load ptr, ptr %8, align 8, !tbaa !32
  %47 = getelementptr inbounds nuw %struct.anon, ptr %46, i32 0, i32 0
  %48 = load i16, ptr %47, align 8, !tbaa !11
  %49 = zext i16 %48 to i64
  %50 = getelementptr inbounds nuw %union.IRIns, ptr %45, i64 %49
  %51 = call i32 @aa_uref(ptr noundef %41, ptr noundef %50)
  switch i32 %51, label %59 [
    i32 0, label %59
    i32 1, label %52
    i32 2, label %54
  ]

52:                                               ; preds = %33
  %53 = load i32, ptr %7, align 4, !tbaa !9
  store i32 %53, ptr %5, align 4, !tbaa !9
  store i32 5, ptr %9, align 4
  br label %64

54:                                               ; preds = %33
  %55 = load ptr, ptr %8, align 8, !tbaa !32
  %56 = getelementptr inbounds nuw %struct.anon, ptr %55, i32 0, i32 1
  %57 = load i16, ptr %56, align 2, !tbaa !11
  %58 = zext i16 %57 to i32
  store i32 %58, ptr %2, align 4
  store i32 1, ptr %9, align 4
  br label %64

59:                                               ; preds = %33, %33
  %60 = load ptr, ptr %8, align 8, !tbaa !32
  %61 = getelementptr inbounds nuw %struct.anon, ptr %60, i32 0, i32 3
  %62 = load i16, ptr %61, align 2, !tbaa !11
  %63 = zext i16 %62 to i32
  store i32 %63, ptr %7, align 4, !tbaa !9
  store i32 0, ptr %9, align 4
  br label %64

64:                                               ; preds = %52, %59, %54
  call void @llvm.lifetime.end.p0(i64 8, ptr %8) #5
  %65 = load i32, ptr %9, align 4
  switch i32 %65, label %151 [
    i32 0, label %66
    i32 5, label %68
  ]

66:                                               ; preds = %64
  br label %29, !llvm.loop !57

67:                                               ; preds = %29
  br label %68

68:                                               ; preds = %67, %64
  %69 = load ptr, ptr %3, align 8, !tbaa !4
  %70 = getelementptr inbounds nuw %struct.jit_State, ptr %69, i32 0, i32 40
  %71 = getelementptr inbounds [101 x i16], ptr %70, i64 0, i64 68
  %72 = load i16, ptr %71, align 2, !tbaa !12
  %73 = zext i16 %72 to i32
  store i32 %73, ptr %7, align 4, !tbaa !9
  br label %74

74:                                               ; preds = %147, %68
  %75 = load i32, ptr %7, align 4, !tbaa !9
  %76 = load i32, ptr %5, align 4, !tbaa !9
  %77 = icmp ugt i32 %75, %76
  br i1 %77, label %78, label %148

78:                                               ; preds = %74
  call void @llvm.lifetime.start.p0(i64 8, ptr %10) #5
  %79 = load ptr, ptr %3, align 8, !tbaa !4
  %80 = getelementptr inbounds nuw %struct.jit_State, ptr %79, i32 0, i32 0
  %81 = getelementptr inbounds nuw %struct.GCtrace, ptr %80, i32 0, i32 7
  %82 = load ptr, ptr %81, align 8, !tbaa !14
  %83 = load i32, ptr %7, align 4, !tbaa !9
  %84 = zext i32 %83 to i64
  %85 = getelementptr inbounds nuw %union.IRIns, ptr %82, i64 %84
  store ptr %85, ptr %10, align 8, !tbaa !32
  %86 = load ptr, ptr %10, align 8, !tbaa !32
  %87 = getelementptr inbounds nuw %struct.anon, ptr %86, i32 0, i32 0
  %88 = load i16, ptr %87, align 8, !tbaa !11
  %89 = zext i16 %88 to i32
  %90 = load i32, ptr %4, align 4, !tbaa !9
  %91 = icmp eq i32 %89, %90
  br i1 %91, label %138, label %92

92:                                               ; preds = %78
  %93 = load ptr, ptr %3, align 8, !tbaa !4
  %94 = getelementptr inbounds nuw %struct.jit_State, ptr %93, i32 0, i32 0
  %95 = getelementptr inbounds nuw %struct.GCtrace, ptr %94, i32 0, i32 7
  %96 = load ptr, ptr %95, align 8, !tbaa !14
  %97 = load ptr, ptr %10, align 8, !tbaa !32
  %98 = getelementptr inbounds nuw %struct.anon, ptr %97, i32 0, i32 0
  %99 = load i16, ptr %98, align 8, !tbaa !11
  %100 = zext i16 %99 to i64
  %101 = getelementptr inbounds nuw %union.IRIns, ptr %96, i64 %100
  %102 = getelementptr inbounds nuw %struct.anon.0, ptr %101, i32 0, i32 0
  %103 = load i32, ptr %102, align 8, !tbaa !11
  %104 = load ptr, ptr %3, align 8, !tbaa !4
  %105 = getelementptr inbounds nuw %struct.jit_State, ptr %104, i32 0, i32 0
  %106 = getelementptr inbounds nuw %struct.GCtrace, ptr %105, i32 0, i32 7
  %107 = load ptr, ptr %106, align 8, !tbaa !14
  %108 = load i32, ptr %4, align 4, !tbaa !9
  %109 = zext i32 %108 to i64
  %110 = getelementptr inbounds nuw %union.IRIns, ptr %107, i64 %109
  %111 = getelementptr inbounds nuw %struct.anon.0, ptr %110, i32 0, i32 0
  %112 = load i32, ptr %111, align 8, !tbaa !11
  %113 = icmp eq i32 %103, %112
  br i1 %113, label %114, label %140

114:                                              ; preds = %92
  %115 = load ptr, ptr %3, align 8, !tbaa !4
  %116 = getelementptr inbounds nuw %struct.jit_State, ptr %115, i32 0, i32 0
  %117 = getelementptr inbounds nuw %struct.GCtrace, ptr %116, i32 0, i32 7
  %118 = load ptr, ptr %117, align 8, !tbaa !14
  %119 = load ptr, ptr %10, align 8, !tbaa !32
  %120 = getelementptr inbounds nuw %struct.anon, ptr %119, i32 0, i32 0
  %121 = load i16, ptr %120, align 8, !tbaa !11
  %122 = zext i16 %121 to i64
  %123 = getelementptr inbounds nuw %union.IRIns, ptr %118, i64 %122
  %124 = getelementptr inbounds nuw %struct.anon.0, ptr %123, i32 0, i32 2
  %125 = load i8, ptr %124, align 1, !tbaa !11
  %126 = zext i8 %125 to i32
  %127 = load ptr, ptr %3, align 8, !tbaa !4
  %128 = getelementptr inbounds nuw %struct.jit_State, ptr %127, i32 0, i32 0
  %129 = getelementptr inbounds nuw %struct.GCtrace, ptr %128, i32 0, i32 7
  %130 = load ptr, ptr %129, align 8, !tbaa !14
  %131 = load i32, ptr %4, align 4, !tbaa !9
  %132 = zext i32 %131 to i64
  %133 = getelementptr inbounds nuw %union.IRIns, ptr %130, i64 %132
  %134 = getelementptr inbounds nuw %struct.anon.0, ptr %133, i32 0, i32 2
  %135 = load i8, ptr %134, align 1, !tbaa !11
  %136 = zext i8 %135 to i32
  %137 = icmp eq i32 %126, %136
  br i1 %137, label %138, label %140

138:                                              ; preds = %114, %78
  %139 = load i32, ptr %7, align 4, !tbaa !9
  store i32 %139, ptr %2, align 4
  store i32 1, ptr %9, align 4
  br label %145

140:                                              ; preds = %114, %92
  %141 = load ptr, ptr %10, align 8, !tbaa !32
  %142 = getelementptr inbounds nuw %struct.anon, ptr %141, i32 0, i32 3
  %143 = load i16, ptr %142, align 2, !tbaa !11
  %144 = zext i16 %143 to i32
  store i32 %144, ptr %7, align 4, !tbaa !9
  store i32 0, ptr %9, align 4
  br label %145

145:                                              ; preds = %140, %138
  call void @llvm.lifetime.end.p0(i64 8, ptr %10) #5
  %146 = load i32, ptr %9, align 4
  switch i32 %146, label %151 [
    i32 0, label %147
  ]

147:                                              ; preds = %145
  br label %74, !llvm.loop !58

148:                                              ; preds = %74
  %149 = load ptr, ptr %3, align 8, !tbaa !4
  %150 = call i32 @lj_ir_emit(ptr noundef %149)
  store i32 %150, ptr %2, align 4
  store i32 1, ptr %9, align 4
  br label %151

151:                                              ; preds = %148, %145, %64
  call void @llvm.lifetime.end.p0(i64 4, ptr %7) #5
  call void @llvm.lifetime.end.p0(i64 8, ptr %6) #5
  call void @llvm.lifetime.end.p0(i64 4, ptr %5) #5
  call void @llvm.lifetime.end.p0(i64 4, ptr %4) #5
  %152 = load i32, ptr %2, align 4
  ret i32 %152
}