; Function Attrs: nounwind uwtable
define hidden i32 @lj_opt_fwd_uload(ptr noundef %0) local_unnamed_addr #2 {
  %2 = getelementptr inbounds nuw i8, ptr %0, i64 184
  %3 = load i16, ptr %2, align 8, !tbaa !4
  %4 = getelementptr inbounds nuw i8, ptr %0, i64 32
  %5 = load ptr, ptr %4, align 8, !tbaa !7
  %6 = zext i16 %3 to i64
  %7 = getelementptr inbounds nuw %union.IRIns, ptr %5, i64 %6
  %8 = getelementptr inbounds nuw i8, ptr %0, i64 554
  %.039.in62 = load i16, ptr %8, align 2, !tbaa !4
  %9 = icmp ugt i16 %.039.in62, -32768
  br i1 %9, label %.lr.ph, label %aa_uref.exit.thread51

.lr.ph:                                           ; preds = %1
  %10 = getelementptr inbounds nuw i8, ptr %7, i64 2
  %11 = getelementptr inbounds nuw i8, ptr %7, i64 5
  %12 = getelementptr inbounds nuw i8, ptr %7, i64 4
  br label %13

13:                                               ; preds = %.lr.ph, %aa_uref.exit
  %.039.in63 = phi i16 [ %.039.in62, %.lr.ph ], [ %.039.in, %aa_uref.exit ]
  %14 = load ptr, ptr %4, align 8, !tbaa !7
  %15 = zext i16 %.039.in63 to i64
  %16 = getelementptr inbounds nuw %union.IRIns, ptr %14, i64 %15
  %17 = load i16, ptr %16, align 8, !tbaa !4
  %18 = zext i16 %17 to i64
  %19 = getelementptr inbounds nuw %union.IRIns, ptr %14, i64 %18
  %20 = load i16, ptr %7, align 8, !tbaa !4
  %21 = load i16, ptr %19, align 8, !tbaa !4
  %22 = icmp eq i16 %20, %21
  %23 = load i16, ptr %10, align 2, !tbaa !4
  %24 = getelementptr inbounds nuw i8, ptr %19, i64 2
  %25 = load i16, ptr %24, align 2, !tbaa !4
  br i1 %22, label %26, label %28

26:                                               ; preds = %13
  %27 = icmp eq i16 %23, %25
  br i1 %27, label %aa_uref.exit.thread46, label %aa_uref.exit

28:                                               ; preds = %13
  %29 = xor i16 %25, %23
  %30 = and i16 %29, 255
  %.not.i = icmp eq i16 %30, 0
  br i1 %.not.i, label %31, label %aa_uref.exit

31:                                               ; preds = %28
  %32 = load i8, ptr %11, align 1, !tbaa !4
  %33 = getelementptr inbounds nuw i8, ptr %19, i64 5
  %34 = load i8, ptr %33, align 1, !tbaa !4
  %.not12.i = icmp eq i8 %32, %34
  br i1 %.not12.i, label %aa_uref.exit.thread51.split.loop.exit, label %35

35:                                               ; preds = %31
  %36 = load i8, ptr %12, align 4, !tbaa !4
  %37 = and i8 %36, 31
  %38 = icmp eq i8 %37, 21
  br i1 %38, label %39, label %41

39:                                               ; preds = %35
  %40 = add nsw i8 %36, -12
  store i8 %40, ptr %12, align 4, !tbaa !4
  br label %aa_uref.exit

41:                                               ; preds = %35
  %42 = getelementptr inbounds nuw i8, ptr %19, i64 4
  %43 = load i8, ptr %42, align 4, !tbaa !4
  %44 = and i8 %43, 31
  %45 = icmp eq i8 %44, 21
  br i1 %45, label %46, label %aa_uref.exit

46:                                               ; preds = %41
  %47 = add nsw i8 %43, -12
  store i8 %47, ptr %42, align 4, !tbaa !4
  br label %aa_uref.exit

aa_uref.exit.thread46:                            ; preds = %26
  %48 = getelementptr inbounds nuw i8, ptr %16, i64 2
  %49 = load i16, ptr %48, align 2, !tbaa !4
  %50 = zext i16 %49 to i32
  br label %.thread

aa_uref.exit:                                     ; preds = %39, %46, %41, %28, %26
  %51 = getelementptr inbounds nuw i8, ptr %16, i64 6
  %.039.in = load i16, ptr %51, align 2, !tbaa !4
  %52 = icmp ugt i16 %.039.in, -32768
  br i1 %52, label %13, label %aa_uref.exit.thread51

aa_uref.exit.thread51.split.loop.exit:            ; preds = %31
  %.039.le = zext i16 %.039.in63 to i32
  br label %aa_uref.exit.thread51

aa_uref.exit.thread51:                            ; preds = %aa_uref.exit, %1, %aa_uref.exit.thread51.split.loop.exit
  %.238 = phi i32 [ %.039.le, %aa_uref.exit.thread51.split.loop.exit ], [ 32768, %1 ], [ 32768, %aa_uref.exit ]
  %53 = getelementptr inbounds nuw i8, ptr %0, i64 538
  %.241.in64 = load i16, ptr %53, align 2, !tbaa !4
  %.24165 = zext i16 %.241.in64 to i32
  %54 = icmp samesign ult i32 %.238, %.24165
  br i1 %54, label %.lr.ph68, label %._crit_edge

.lr.ph68:                                         ; preds = %aa_uref.exit.thread51
  %55 = load ptr, ptr %4, align 8, !tbaa !7
  %56 = getelementptr inbounds nuw %union.IRIns, ptr %55, i64 %6
  %57 = getelementptr inbounds nuw i8, ptr %56, i64 5
  %58 = zext i16 %.241.in64 to i64
  %59 = getelementptr inbounds nuw %union.IRIns, ptr %55, i64 %58
  %60 = load i16, ptr %59, align 8, !tbaa !4
  %61 = icmp eq i16 %60, %3
  br i1 %61, label %.thread, label %.lr.ph85.preheader

.lr.ph85.preheader:                               ; preds = %.lr.ph68
  %62 = load i32, ptr %56, align 8, !tbaa !4
  %invariant.gep = getelementptr inbounds i8, ptr %55, i64 6
  br label %.lr.ph85

63:                                               ; preds = %79
  %64 = zext i16 %.241.in to i64
  %65 = getelementptr inbounds nuw %union.IRIns, ptr %55, i64 %64
  %66 = load i16, ptr %65, align 8, !tbaa !4
  %67 = icmp eq i16 %66, %3
  br i1 %67, label %.thread, label %.lr.ph85, !llvm.loop !42

.lr.ph85:                                         ; preds = %.lr.ph85.preheader, %63
  %68 = phi i16 [ %66, %63 ], [ %60, %.lr.ph85.preheader ]
  %69 = phi i64 [ %64, %63 ], [ %58, %.lr.ph85.preheader ]
  %.2416784 = phi i32 [ %.241, %63 ], [ %.24165, %.lr.ph85.preheader ]
  %70 = zext i16 %68 to i64
  %71 = getelementptr inbounds nuw %union.IRIns, ptr %55, i64 %70
  %72 = load i32, ptr %71, align 8, !tbaa !4
  %73 = icmp eq i32 %72, %62
  br i1 %73, label %74, label %79

74:                                               ; preds = %.lr.ph85
  %75 = getelementptr inbounds nuw i8, ptr %71, i64 5
  %76 = load i8, ptr %75, align 1, !tbaa !4
  %77 = load i8, ptr %57, align 1, !tbaa !4
  %78 = icmp eq i8 %76, %77
  br i1 %78, label %.thread, label %79

79:                                               ; preds = %.lr.ph85, %74
  %gep = getelementptr inbounds %union.IRIns, ptr %invariant.gep, i64 %69
  %.241.in = load i16, ptr %gep, align 2, !tbaa !4
  %.241 = zext i16 %.241.in to i32
  %80 = icmp samesign ult i32 %.238, %.241
  br i1 %80, label %63, label %._crit_edge, !llvm.loop !42

._crit_edge:                                      ; preds = %79, %aa_uref.exit.thread51
  %81 = tail call i32 @lj_ir_emit(ptr noundef nonnull %0) #6
  br label %.thread

.thread:                                          ; preds = %74, %63, %.lr.ph68, %aa_uref.exit.thread46, %._crit_edge
  %.2 = phi i32 [ %81, %._crit_edge ], [ %50, %aa_uref.exit.thread46 ], [ %.24165, %.lr.ph68 ], [ %.241, %63 ], [ %.2416784, %74 ]
  ret i32 %.2
}